target datalayout = "e-m:e-p270:32:32-p271:32:32-p272:64:64-i64:64-i128:128-f80:128-n8:16:32:64-S128"
target triple = "x86_64-pc-linux-gnu"

%struct.LogicalTape = type { ptr, i8, i8, i8, i64, i64, i64, i64, ptr, i32, i32, i32, i32, ptr, i32, i32 }

; Function Attrs: nounwind uwtable
define internal void @ltsInitReadBuffer(ptr noundef %0) #0 {
  %2 = alloca ptr, align 8
  store ptr %0, ptr %2, align 8
  %3 = load ptr, ptr %2, align 8
  %4 = getelementptr inbounds nuw %struct.LogicalTape, ptr %3, i32 0, i32 9
  %5 = load i32, ptr %4, align 8
  %6 = sext i32 %5 to i64
  %7 = call ptr @palloc(i64 noundef %6)
  %8 = load ptr, ptr %2, align 8
  %9 = getelementptr inbounds nuw %struct.LogicalTape, ptr %8, i32 0, i32 8
  store ptr %7, ptr %9, align 8
  %10 = load ptr, ptr %2, align 8
  %11 = getelementptr inbounds nuw %struct.LogicalTape, ptr %10, i32 0, i32 4
  %12 = load i64, ptr %11, align 8
  %13 = load ptr, ptr %2, align 8
  %14 = getelementptr inbounds nuw %struct.LogicalTape, ptr %13, i32 0, i32 6
  store i64 %12, ptr %14, align 8
  %15 = load ptr, ptr %2, align 8
  %16 = getelementptr inbounds nuw %struct.LogicalTape, ptr %15, i32 0, i32 11
  store i32 0, ptr %16, align 8
  %17 = load ptr, ptr %2, align 8
  %18 = getelementptr inbounds nuw %struct.LogicalTape, ptr %17, i32 0, i32 12
  store i32 0, ptr %18, align 4
  %19 = load ptr, ptr %2, align 8
  %20 = call zeroext i1 @ltsReadFillBuffer(ptr noundef %19)
  ret void
}

; Function Attrs: nounwind uwtable
define dso_local void @LogicalTapeTell(ptr noundef %0, ptr noundef %1, ptr noundef %2) #0 {
  %4 = alloca ptr, align 8
  %5 = alloca ptr, align 8
  %6 = alloca ptr, align 8
  store ptr %0, ptr %4, align 8
  store ptr %1, ptr %5, align 8
  store ptr %2, ptr %6, align 8
  %7 = load ptr, ptr %4, align 8
  %8 = getelementptr inbounds nuw %struct.LogicalTape, ptr %7, i32 0, i32 8
  %9 = load ptr, ptr %8, align 8
  %10 = icmp eq ptr %9, null
  br i1 %10, label %11, label %13

11:                                               ; preds = %3
  %12 = load ptr, ptr %4, align 8
  call void @ltsInitReadBuffer(ptr noundef %12)
  br label %13

13:                                               ; preds = %11, %3
  %14 = load ptr, ptr %4, align 8
  %15 = getelementptr inbounds nuw %struct.LogicalTape, ptr %14, i32 0, i32 5
  %16 = load i64, ptr %15, align 8
  %17 = load ptr, ptr %5, align 8
  store i64 %16, ptr %17, align 8
  %18 = load ptr, ptr %4, align 8
  %19 = getelementptr inbounds nuw %struct.LogicalTape, ptr %18, i32 0, i32 11
  %20 = load i32, ptr %19, align 8
  %21 = load ptr, ptr %6, align 8
  store i32 %20, ptr %21, align 4
  ret void
}