; Function Attrs: nounwind uwtable
define dso_local void @LogicalTapeTell(ptr noundef captures(none) %0, ptr noundef writeonly captures(none) initializes((0, 8)) %1, ptr noundef writeonly captures(none) initializes((0, 4)) %2) local_unnamed_addr #0 {
  %4 = getelementptr inbounds nuw i8, ptr %0, i64 48
  %5 = load ptr, ptr %4, align 8
  %6 = icmp eq ptr %5, null
  br i1 %6, label %7, label %18

7:                                                ; preds = %3
  %8 = getelementptr inbounds nuw i8, ptr %0, i64 56
  %9 = load i32, ptr %8, align 8
  %10 = sext i32 %9 to i64
  %11 = tail call ptr @palloc(i64 noundef %10) #10
  store ptr %11, ptr %4, align 8
  %12 = getelementptr inbounds nuw i8, ptr %0, i64 16
  %13 = load i64, ptr %12, align 8
  %14 = getelementptr inbounds nuw i8, ptr %0, i64 32
  store i64 %13, ptr %14, align 8
  %15 = getelementptr inbounds nuw i8, ptr %0, i64 64
  store i32 0, ptr %15, align 8
  %16 = getelementptr inbounds nuw i8, ptr %0, i64 68
  store i32 0, ptr %16, align 4
  %17 = tail call fastcc zeroext i1 @ltsReadFillBuffer(ptr noundef nonnull %0)
  br label %18

18:                                               ; preds = %7, %3
  %19 = getelementptr inbounds nuw i8, ptr %0, i64 24
  %20 = load i64, ptr %19, align 8
  store i64 %20, ptr %1, align 8
  %21 = getelementptr inbounds nuw i8, ptr %0, i64 64
  %22 = load i32, ptr %21, align 8
  store i32 %22, ptr %2, align 4
  ret void
}